target datalayout = "e-m:e-p270:32:32-p271:32:32-p272:64:64-i64:64-i128:128-f80:128-n8:16:32:64-S128"
target triple = "x86_64-pc-linux-gnu"

%struct.expert_field = type { i32, i32 }

@hf_ieee80211_wfa_ie_owe_bssid = internal global i32 0, align 4
@hf_ieee80211_wfa_ie_owe_ssid_length = internal global i32 0, align 4
@hf_ieee80211_wfa_ie_owe_ssid = internal global i32 0, align 4
@hf_ieee80211_wfa_ie_owe_band_info = internal global i32 0, align 4
@hf_ieee80211_wfa_ie_owe_channel_info = internal global i32 0, align 4
@ei_ieee80211_bad_length = internal global %struct.expert_field zeroinitializer, align 4

; Function Attrs: null_pointer_is_valid sspstrong uwtable
define internal i32 @dissect_owe_transition_mode(ptr noundef %0, ptr noundef %1, ptr noundef %2, ptr noundef %3) #1 {
  %5 = alloca i32, align 4
  %6 = alloca ptr, align 8
  %7 = alloca ptr, align 8
  %8 = alloca ptr, align 8
  %9 = alloca ptr, align 8
  %10 = alloca i8, align 1
  %11 = alloca i32, align 4
  %12 = alloca i32, align 4
  %13 = alloca i32, align 4
  store ptr %0, ptr %6, align 8
  store ptr %1, ptr %7, align 8
  store ptr %2, ptr %8, align 8
  store ptr %3, ptr %9, align 8
  call void @llvm.lifetime.start.p0(i64 1, ptr %10) #19
  call void @llvm.lifetime.start.p0(i64 4, ptr %11) #19
  %14 = load ptr, ptr %6, align 8
  %15 = call i32 @tvb_captured_length(ptr noundef %14)
  store i32 %15, ptr %11, align 4
  call void @llvm.lifetime.start.p0(i64 4, ptr %12) #19
  store i32 0, ptr %12, align 4
  %16 = load ptr, ptr %8, align 8
  %17 = load i32, ptr @hf_ieee80211_wfa_ie_owe_bssid, align 4
  %18 = load ptr, ptr %6, align 8
  %19 = load i32, ptr %12, align 4
  %20 = call ptr @proto_tree_add_item(ptr noundef %16, i32 noundef %17, ptr noundef %18, i32 noundef %19, i32 noundef 6, i32 noundef 0)
  %21 = load i32, ptr %12, align 4
  %22 = add i32 %21, 6
  store i32 %22, ptr %12, align 4
  %23 = load i32, ptr %11, align 4
  %24 = sub i32 %23, 6
  store i32 %24, ptr %11, align 4
  %25 = load ptr, ptr %6, align 8
  %26 = load i32, ptr %12, align 4
  %27 = call zeroext i8 @tvb_get_uint8(ptr noundef %25, i32 noundef %26)
  store i8 %27, ptr %10, align 1
  %28 = load ptr, ptr %8, align 8
  %29 = load i32, ptr @hf_ieee80211_wfa_ie_owe_ssid_length, align 4
  %30 = load ptr, ptr %6, align 8
  %31 = load i32, ptr %12, align 4
  %32 = load i8, ptr %10, align 1
  %33 = zext i8 %32 to i32
  %34 = call ptr @proto_tree_add_uint(ptr noundef %28, i32 noundef %29, ptr noundef %30, i32 noundef %31, i32 noundef 1, i32 noundef %33)
  %35 = load i32, ptr %12, align 4
  %36 = add i32 %35, 1
  store i32 %36, ptr %12, align 4
  %37 = load i32, ptr %11, align 4
  %38 = sub i32 %37, 1
  store i32 %38, ptr %11, align 4
  %39 = load i32, ptr %11, align 4
  %40 = load i8, ptr %10, align 1
  %41 = zext i8 %40 to i32
  %42 = icmp slt i32 %39, %41
  br i1 %42, label %43, label %48

43:                                               ; preds = %4
  %44 = load ptr, ptr %7, align 8
  %45 = load ptr, ptr %8, align 8
  %46 = call ptr @expert_add_info(ptr noundef %44, ptr noundef %45, ptr noundef @ei_ieee80211_bad_length)
  %47 = load i32, ptr %12, align 4
  store i32 %47, ptr %5, align 4
  store i32 1, ptr %13, align 4
  br label %81

48:                                               ; preds = %4
  %49 = load ptr, ptr %8, align 8
  %50 = load i32, ptr @hf_ieee80211_wfa_ie_owe_ssid, align 4
  %51 = load ptr, ptr %6, align 8
  %52 = load i32, ptr %12, align 4
  %53 = load i8, ptr %10, align 1
  %54 = zext i8 %53 to i32
  %55 = call ptr @proto_tree_add_item(ptr noundef %49, i32 noundef %50, ptr noundef %51, i32 noundef %52, i32 noundef %54, i32 noundef 0)
  %56 = load i32, ptr %11, align 4
  %57 = load i32, ptr %12, align 4
  %58 = add i32 %57, %56
  store i32 %58, ptr %12, align 4
  %59 = load i32, ptr %11, align 4
  %60 = load i32, ptr %11, align 4
  %61 = sub i32 %60, %59
  store i32 %61, ptr %11, align 4
  %62 = load i32, ptr %11, align 4
  %63 = icmp sge i32 %62, 2
  br i1 %63, label %64, label %79

64:                                               ; preds = %48
  %65 = load ptr, ptr %8, align 8
  %66 = load i32, ptr @hf_ieee80211_wfa_ie_owe_band_info, align 4
  %67 = load ptr, ptr %6, align 8
  %68 = load i32, ptr %12, align 4
  %69 = call ptr @proto_tree_add_item(ptr noundef %65, i32 noundef %66, ptr noundef %67, i32 noundef %68, i32 noundef 1, i32 noundef 0)
  %70 = load i32, ptr %12, align 4
  %71 = add i32 %70, 1
  store i32 %71, ptr %12, align 4
  %72 = load ptr, ptr %8, align 8
  %73 = load i32, ptr @hf_ieee80211_wfa_ie_owe_channel_info, align 4
  %74 = load ptr, ptr %6, align 8
  %75 = load i32, ptr %12, align 4
  %76 = call ptr @proto_tree_add_item(ptr noundef %72, i32 noundef %73, ptr noundef %74, i32 noundef %75, i32 noundef 1, i32 noundef 0)
  %77 = load i32, ptr %12, align 4
  %78 = add i32 %77, 1
  store i32 %78, ptr %12, align 4
  br label %79

79:                                               ; preds = %64, %48
  %80 = load i32, ptr %12, align 4
  store i32 %80, ptr %5, align 4
  store i32 1, ptr %13, align 4
  br label %81

81:                                               ; preds = %79, %43
  call void @llvm.lifetime.end.p0(i64 4, ptr %12) #19
  call void @llvm.lifetime.end.p0(i64 4, ptr %11) #19
  call void @llvm.lifetime.end.p0(i64 1, ptr %10) #19
  %82 = load i32, ptr %5, align 4
  ret i32 %82
}