; Function Attrs: null_pointer_is_valid sspstrong uwtable
define internal range(i32 7, -2147483641) i32 @dissect_owe_transition_mode(ptr noundef %0, ptr noundef %1, ptr noundef %2, ptr readnone captures(none) %3) #2 {
  %5 = tail call i32 @tvb_captured_length(ptr noundef %0)
  %6 = load i32, ptr @hf_ieee80211_wfa_ie_owe_bssid, align 4
  %7 = tail call ptr @proto_tree_add_item(ptr noundef %2, i32 noundef %6, ptr noundef %0, i32 noundef 0, i32 noundef 6, i32 noundef 0)
  %8 = tail call zeroext i8 @tvb_get_uint8(ptr noundef %0, i32 noundef 6)
  %9 = load i32, ptr @hf_ieee80211_wfa_ie_owe_ssid_length, align 4
  %10 = zext i8 %8 to i32
  %11 = tail call ptr @proto_tree_add_uint(ptr noundef %2, i32 noundef %9, ptr noundef %0, i32 noundef 6, i32 noundef 1, i32 noundef %10)
  %12 = add i32 %5, -7
  %13 = icmp slt i32 %12, %10
  br i1 %13, label %14, label %16

14:                                               ; preds = %4
  %15 = tail call ptr @expert_add_info(ptr noundef %1, ptr noundef %2, ptr noundef nonnull @ei_ieee80211_bad_length)
  br label %19

16:                                               ; preds = %4
  %17 = load i32, ptr @hf_ieee80211_wfa_ie_owe_ssid, align 4
  %18 = tail call ptr @proto_tree_add_item(ptr noundef %2, i32 noundef %17, ptr noundef %0, i32 noundef 7, i32 noundef %10, i32 noundef 0)
  br label %19

19:                                               ; preds = %16, %14
  %.037 = phi i32 [ 7, %14 ], [ %5, %16 ]
  ret i32 %.037
}